target datalayout = "e-m:e-p270:32:32-p271:32:32-p272:64:64-i64:64-i128:128-f80:128-n8:16:32:64-S128"
target triple = "x86_64-pc-linux-gnu"

%struct._address = type { i32, i32, ptr, ptr }
%struct.profile = type { i16, i8, %struct._address, i32, i32, ptr, ptr, ptr, ptr, ptr, ptr, ptr, i32, ptr, ptr, ptr }

@.str.675 = private unnamed_addr constant [3 x i8] c"%s\00", align 1
@.str.1094 = private unnamed_addr constant [5 x i8] c".eds\00", align 1
@.str.1095 = private unnamed_addr constant [5 x i8] c".xdd\00", align 1
@.str.1096 = private unnamed_addr constant [5 x i8] c".xdc\00", align 1
@.str.1097 = private unnamed_addr constant [32 x i8] c"Profile '%s' couldn't be parsed\00", align 1

; Function Attrs: nounwind uwtable
define internal zeroext i1 @profile_del_cb(ptr noundef %0, i32 noundef %1, ptr noundef %2) #0 {
  %4 = alloca ptr, align 8
  %5 = alloca i32, align 4
  %6 = alloca ptr, align 8
  %7 = alloca ptr, align 8
  store ptr %0, ptr %4, align 8
  store i32 %1, ptr %5, align 4
  store ptr %2, ptr %6, align 8
  %8 = load ptr, ptr %6, align 8
  store ptr %8, ptr %7, align 8
  %9 = load ptr, ptr %7, align 8
  %10 = getelementptr inbounds %struct.profile, ptr %9, i32 0, i32 8
  %11 = load ptr, ptr %10, align 8
  %12 = icmp ne ptr %11, null
  br i1 %12, label %13, label %21

13:                                               ; preds = %3
  %14 = load ptr, ptr %7, align 8
  %15 = getelementptr inbounds %struct.profile, ptr %14, i32 0, i32 8
  %16 = load ptr, ptr %15, align 8
  %17 = load ptr, ptr %7, align 8
  %18 = getelementptr inbounds %struct.profile, ptr %17, i32 0, i32 11
  %19 = load ptr, ptr %18, align 8
  %20 = call ptr @wmem_map_remove(ptr noundef %16, ptr noundef %19)
  br label %21

21:                                               ; preds = %13, %3
  %22 = load ptr, ptr %7, align 8
  %23 = getelementptr inbounds %struct.profile, ptr %22, i32 0, i32 6
  %24 = load ptr, ptr %23, align 8
  call void @wmem_destroy_allocator(ptr noundef %24)
  ret i1 false
}

; Function Attrs: nounwind uwtable
define internal void @profile_del(ptr noundef %0) #0 {
  %2 = alloca ptr, align 8
  store ptr %0, ptr %2, align 8
  %3 = load ptr, ptr %2, align 8
  %4 = icmp ne ptr %3, null
  br i1 %4, label %6, label %5

5:                                                ; preds = %1
  br label %15

6:                                                ; preds = %1
  %7 = load ptr, ptr %2, align 8
  %8 = getelementptr inbounds %struct.profile, ptr %7, i32 0, i32 7
  %9 = load ptr, ptr %8, align 8
  %10 = load ptr, ptr %2, align 8
  %11 = getelementptr inbounds %struct.profile, ptr %10, i32 0, i32 12
  %12 = load i32, ptr %11, align 8
  call void @wmem_unregister_callback(ptr noundef %9, i32 noundef %12)
  %13 = load ptr, ptr %2, align 8
  %14 = call zeroext i1 @profile_del_cb(ptr noundef null, i32 noundef 1, ptr noundef %13)
  br label %15

15:                                               ; preds = %6, %5
  ret void
}

; Function Attrs: nounwind uwtable
define internal ptr @profile_new(ptr noundef %0) #0 {
  %2 = alloca ptr, align 8
  %3 = alloca ptr, align 8
  %4 = alloca ptr, align 8
  store ptr %0, ptr %2, align 8
  %5 = call ptr @wmem_allocator_new(i32 noundef 0)
  store ptr %5, ptr %3, align 8
  %6 = load ptr, ptr %3, align 8
  %7 = call noalias ptr @wmem_alloc0(ptr noundef %6, i64 noundef 128)
  store ptr %7, ptr %4, align 8
  %8 = load ptr, ptr %2, align 8
  %9 = load ptr, ptr %4, align 8
  %10 = call i32 @wmem_register_callback(ptr noundef %8, ptr noundef @profile_del_cb, ptr noundef %9)
  %11 = load ptr, ptr %4, align 8
  %12 = getelementptr inbounds %struct.profile, ptr %11, i32 0, i32 12
  store i32 %10, ptr %12, align 8
  %13 = load ptr, ptr %3, align 8
  %14 = load ptr, ptr %4, align 8
  %15 = getelementptr inbounds %struct.profile, ptr %14, i32 0, i32 6
  store ptr %13, ptr %15, align 8
  %16 = load ptr, ptr %2, align 8
  %17 = load ptr, ptr %4, align 8
  %18 = getelementptr inbounds %struct.profile, ptr %17, i32 0, i32 7
  store ptr %16, ptr %18, align 8
  %19 = load ptr, ptr %4, align 8
  %20 = getelementptr inbounds %struct.profile, ptr %19, i32 0, i32 8
  store ptr null, ptr %20, align 8
  %21 = load ptr, ptr %3, align 8
  %22 = call noalias ptr @wmem_map_new(ptr noundef %21, ptr noundef @g_direct_hash, ptr noundef @g_direct_equal)
  %23 = load ptr, ptr %4, align 8
  %24 = getelementptr inbounds %struct.profile, ptr %23, i32 0, i32 5
  store ptr %22, ptr %24, align 8
  %25 = load ptr, ptr %4, align 8
  %26 = getelementptr inbounds %struct.profile, ptr %25, i32 0, i32 9
  store ptr null, ptr %26, align 8
  %27 = load ptr, ptr %4, align 8
  %28 = getelementptr inbounds %struct.profile, ptr %27, i32 0, i32 10
  store ptr null, ptr %28, align 8
  %29 = load ptr, ptr %3, align 8
  %30 = call noalias ptr @wmem_array_new(ptr noundef %29, i64 noundef 72)
  %31 = load ptr, ptr %4, align 8
  %32 = getelementptr inbounds %struct.profile, ptr %31, i32 0, i32 14
  store ptr %30, ptr %32, align 8
  %33 = load ptr, ptr %3, align 8
  %34 = call noalias ptr @wmem_array_new(ptr noundef %33, i64 noundef 72)
  %35 = load ptr, ptr %4, align 8
  %36 = getelementptr inbounds %struct.profile, ptr %35, i32 0, i32 13
  store ptr %34, ptr %36, align 8
  %37 = load ptr, ptr %4, align 8
  %38 = getelementptr inbounds %struct.profile, ptr %37, i32 0, i32 15
  store ptr null, ptr %38, align 8
  %39 = load ptr, ptr %4, align 8
  ret ptr %39
}

; Function Attrs: nounwind uwtable
define internal ptr @profile_load(ptr noundef %0, ptr noundef %1) #0 {
  %3 = alloca ptr, align 8
  %4 = alloca ptr, align 8
  %5 = alloca ptr, align 8
  %6 = alloca ptr, align 8
  %7 = alloca ptr, align 8
  store ptr %0, ptr %4, align 8
  store ptr %1, ptr %5, align 8
  store ptr null, ptr %6, align 8
  %8 = load ptr, ptr %5, align 8
  %9 = load ptr, ptr %5, align 8
  %10 = call i64 @strlen(ptr noundef %9) #8
  %11 = trunc i64 %10 to i32
  %12 = call zeroext i1 @epl_profile_uat_fld_fileopen_check_cb(ptr noundef null, ptr noundef %8, i32 noundef %11, ptr noundef null, ptr noundef null, ptr noundef %7)
  br i1 %12, label %16, label %13

13:                                               ; preds = %2
  %14 = load ptr, ptr %7, align 8
  call void (ptr, ...) @report_failure(ptr noundef @.str.675, ptr noundef %14)
  %15 = load ptr, ptr %7, align 8
  call void @g_free(ptr noundef %15)
  store ptr null, ptr %3, align 8
  br label %56

16:                                               ; preds = %2
  %17 = load ptr, ptr %5, align 8
  %18 = call i32 @g_str_has_suffix(ptr noundef %17, ptr noundef @.str.1094)
  %19 = icmp ne i32 %18, 0
  br i1 %19, label %20, label %30

20:                                               ; preds = %16
  %21 = load ptr, ptr %4, align 8
  %22 = call ptr @profile_new(ptr noundef %21)
  store ptr %22, ptr %6, align 8
  %23 = load ptr, ptr %6, align 8
  %24 = load ptr, ptr %5, align 8
  %25 = call ptr @epl_eds_load(ptr noundef %23, ptr noundef %24)
  %26 = icmp ne ptr %25, null
  br i1 %26, label %29, label %27

27:                                               ; preds = %20
  %28 = load ptr, ptr %6, align 8
  call void @profile_del(ptr noundef %28)
  br label %29

29:                                               ; preds = %27, %20
  br label %49

30:                                               ; preds = %16
  %31 = load ptr, ptr %5, align 8
  %32 = call i32 @g_str_has_suffix(ptr noundef %31, ptr noundef @.str.1095)
  %33 = icmp ne i32 %32, 0
  br i1 %33, label %38, label %34

34:                                               ; preds = %30
  %35 = load ptr, ptr %5, align 8
  %36 = call i32 @g_str_has_suffix(ptr noundef %35, ptr noundef @.str.1096)
  %37 = icmp ne i32 %36, 0
  br i1 %37, label %38, label %48

38:                                               ; preds = %34, %30
  %39 = load ptr, ptr %4, align 8
  %40 = call ptr @profile_new(ptr noundef %39)
  store ptr %40, ptr %6, align 8
  %41 = load ptr, ptr %6, align 8
  %42 = load ptr, ptr %5, align 8
  %43 = call ptr @epl_xdd_load(ptr noundef %41, ptr noundef %42)
  %44 = icmp ne ptr %43, null
  br i1 %44, label %47, label %45

45:                                               ; preds = %38
  %46 = load ptr, ptr %6, align 8
  call void @profile_del(ptr noundef %46)
  br label %47

47:                                               ; preds = %45, %38
  br label %48

48:                                               ; preds = %47, %34
  br label %49

49:                                               ; preds = %48, %29
  %50 = load ptr, ptr %6, align 8
  %51 = icmp ne ptr %50, null
  br i1 %51, label %54, label %52

52:                                               ; preds = %49
  %53 = load ptr, ptr %5, align 8
  call void (ptr, ...) @report_failure(ptr noundef @.str.1097, ptr noundef %53)
  br label %54

54:                                               ; preds = %52, %49
  %55 = load ptr, ptr %6, align 8
  store ptr %55, ptr %3, align 8
  br label %56

56:                                               ; preds = %54, %13
  %57 = load ptr, ptr %3, align 8
  ret ptr %57
}