; Function Attrs: nounwind uwtable
define internal fastcc noundef ptr @profile_load(ptr noundef %0, ptr noundef %1) unnamed_addr #2 {
  %3 = alloca ptr, align 8
  %4 = tail call i64 @strlen(ptr noundef nonnull dereferenceable(1) %1) #17
  %5 = trunc i64 %4 to i32
  %6 = call zeroext i1 @epl_profile_uat_fld_fileopen_check_cb(ptr poison, ptr noundef nonnull %1, i32 noundef %5, ptr poison, ptr poison, ptr noundef nonnull %3)
  br i1 %6, label %9, label %7

7:                                                ; preds = %2
  %8 = load ptr, ptr %3, align 8
  tail call void (ptr, ...) @report_failure(ptr noundef nonnull @.str.675, ptr noundef %8) #18
  tail call void @g_free(ptr noundef %8) #18
  br label %.thread

9:                                                ; preds = %2
  %10 = tail call i32 @g_str_has_suffix(ptr noundef nonnull %1, ptr noundef nonnull @.str.1094) #18
  %.not = icmp eq i32 %10, 0
  br i1 %.not, label %37, label %11

11:                                               ; preds = %9
  %12 = tail call ptr @wmem_allocator_new(i32 noundef 0) #18
  %13 = tail call noalias ptr @wmem_alloc0(ptr noundef %12, i64 noundef 128) #18
  %14 = tail call i32 @wmem_register_callback(ptr noundef %0, ptr noundef nonnull @profile_del_cb, ptr noundef %13) #18
  %15 = getelementptr inbounds nuw i8, ptr %13, i64 96
  store i32 %14, ptr %15, align 8
  %16 = getelementptr inbounds nuw i8, ptr %13, i64 48
  store ptr %12, ptr %16, align 8
  %17 = getelementptr inbounds nuw i8, ptr %13, i64 56
  store ptr %0, ptr %17, align 8
  %18 = getelementptr inbounds nuw i8, ptr %13, i64 64
  store ptr null, ptr %18, align 8
  %19 = tail call noalias ptr @wmem_map_new(ptr noundef %12, ptr noundef nonnull @g_direct_hash, ptr noundef nonnull @g_direct_equal) #18
  %20 = getelementptr inbounds nuw i8, ptr %13, i64 40
  store ptr %19, ptr %20, align 8
  %21 = getelementptr inbounds nuw i8, ptr %13, i64 72
  tail call void @llvm.memset.p0.i64(ptr noundef nonnull align 8 dereferenceable(16) %21, i8 0, i64 16, i1 false)
  %22 = tail call noalias ptr @wmem_array_new(ptr noundef %12, i64 noundef 72) #18
  %23 = getelementptr inbounds nuw i8, ptr %13, i64 112
  store ptr %22, ptr %23, align 8
  %24 = tail call noalias ptr @wmem_array_new(ptr noundef %12, i64 noundef 72) #18
  %25 = getelementptr inbounds nuw i8, ptr %13, i64 104
  store ptr %24, ptr %25, align 8
  %26 = getelementptr inbounds nuw i8, ptr %13, i64 120
  store ptr null, ptr %26, align 8
  %27 = tail call ptr @epl_eds_load(ptr noundef %13, ptr noundef nonnull %1) #18
  %.not21 = icmp eq ptr %27, null
  br i1 %.not21, label %28, label %.thread

28:                                               ; preds = %11
  %29 = load ptr, ptr %17, align 8
  %30 = load i32, ptr %15, align 8
  tail call void @wmem_unregister_callback(ptr noundef %29, i32 noundef %30) #18
  %31 = load ptr, ptr %18, align 8
  %.not.i.i = icmp eq ptr %31, null
  br i1 %.not.i.i, label %profile_del.exit, label %32

32:                                               ; preds = %28
  %33 = getelementptr inbounds nuw i8, ptr %13, i64 88
  %34 = load ptr, ptr %33, align 8
  %35 = tail call ptr @wmem_map_remove(ptr noundef nonnull %31, ptr noundef %34) #18
  br label %profile_del.exit

profile_del.exit:                                 ; preds = %28, %32
  %36 = load ptr, ptr %16, align 8
  tail call void @wmem_destroy_allocator(ptr noundef %36) #18
  br label %.thread

37:                                               ; preds = %9
  %38 = tail call i32 @g_str_has_suffix(ptr noundef nonnull %1, ptr noundef nonnull @.str.1095) #18
  %.not18 = icmp eq i32 %38, 0
  br i1 %.not18, label %39, label %41

39:                                               ; preds = %37
  %40 = tail call i32 @g_str_has_suffix(ptr noundef nonnull %1, ptr noundef nonnull @.str.1096) #18
  %.not19 = icmp eq i32 %40, 0
  br i1 %.not19, label %67, label %41

41:                                               ; preds = %39, %37
  %42 = tail call ptr @wmem_allocator_new(i32 noundef 0) #18
  %43 = tail call noalias ptr @wmem_alloc0(ptr noundef %42, i64 noundef 128) #18
  %44 = tail call i32 @wmem_register_callback(ptr noundef %0, ptr noundef nonnull @profile_del_cb, ptr noundef %43) #18
  %45 = getelementptr inbounds nuw i8, ptr %43, i64 96
  store i32 %44, ptr %45, align 8
  %46 = getelementptr inbounds nuw i8, ptr %43, i64 48
  store ptr %42, ptr %46, align 8
  %47 = getelementptr inbounds nuw i8, ptr %43, i64 56
  store ptr %0, ptr %47, align 8
  %48 = getelementptr inbounds nuw i8, ptr %43, i64 64
  store ptr null, ptr %48, align 8
  %49 = tail call noalias ptr @wmem_map_new(ptr noundef %42, ptr noundef nonnull @g_direct_hash, ptr noundef nonnull @g_direct_equal) #18
  %50 = getelementptr inbounds nuw i8, ptr %43, i64 40
  store ptr %49, ptr %50, align 8
  %51 = getelementptr inbounds nuw i8, ptr %43, i64 72
  tail call void @llvm.memset.p0.i64(ptr noundef nonnull align 8 dereferenceable(16) %51, i8 0, i64 16, i1 false)
  %52 = tail call noalias ptr @wmem_array_new(ptr noundef %42, i64 noundef 72) #18
  %53 = getelementptr inbounds nuw i8, ptr %43, i64 112
  store ptr %52, ptr %53, align 8
  %54 = tail call noalias ptr @wmem_array_new(ptr noundef %42, i64 noundef 72) #18
  %55 = getelementptr inbounds nuw i8, ptr %43, i64 104
  store ptr %54, ptr %55, align 8
  %56 = getelementptr inbounds nuw i8, ptr %43, i64 120
  store ptr null, ptr %56, align 8
  %57 = tail call ptr @epl_xdd_load(ptr noundef %43, ptr noundef nonnull %1) #18
  %.not20 = icmp eq ptr %57, null
  br i1 %.not20, label %58, label %.thread

58:                                               ; preds = %41
  %59 = load ptr, ptr %47, align 8
  %60 = load i32, ptr %45, align 8
  tail call void @wmem_unregister_callback(ptr noundef %59, i32 noundef %60) #18
  %61 = load ptr, ptr %48, align 8
  %.not.i.i24 = icmp eq ptr %61, null
  br i1 %.not.i.i24, label %profile_del.exit26, label %62

62:                                               ; preds = %58
  %63 = getelementptr inbounds nuw i8, ptr %43, i64 88
  %64 = load ptr, ptr %63, align 8
  %65 = tail call ptr @wmem_map_remove(ptr noundef nonnull %61, ptr noundef %64) #18
  br label %profile_del.exit26

profile_del.exit26:                               ; preds = %58, %62
  %66 = load ptr, ptr %46, align 8
  tail call void @wmem_destroy_allocator(ptr noundef %66) #18
  br label %.thread

67:                                               ; preds = %39
  tail call void (ptr, ...) @report_failure(ptr noundef nonnull @.str.1097, ptr noundef nonnull %1) #18
  br label %.thread

.thread:                                          ; preds = %profile_del.exit26, %41, %profile_del.exit, %11, %67, %7
  %.017 = phi ptr [ null, %7 ], [ null, %67 ], [ %43, %profile_del.exit26 ], [ %43, %41 ], [ %13, %profile_del.exit ], [ %13, %11 ]
  ret ptr %.017
}